; Function Attrs: nounwind uwtable
define internal ptr @timestamp_macro(ptr nocapture noundef readonly %tmpl) #0 {
entry:
  %st = alloca %struct.stat, align 8
  %buf = alloca [30 x i8], align 16
  %file = getelementptr inbounds %struct.Token, ptr %tmpl, i64 0, i32 8
  %0 = load ptr, ptr %file, align 16
  %1 = load ptr, ptr %0, align 8
  %call = call i32 @stat(ptr noundef %1, ptr noundef nonnull %st) #14
  %cmp.not = icmp eq i32 %call, 0
  br i1 %cmp.not, label %if.end, label %for.cond.i.i

for.cond.i.i:                                     ; preds = %entry, %if.end.i.i
  %indvars.iv.i.i = phi i64 [ %indvars.iv.next.i.i, %if.end.i.i ], [ 0, %entry ]
  %bufsize.0.i.i = phi i32 [ %inc9.i.i, %if.end.i.i ], [ 3, %entry ]
  %arrayidx.i.i = getelementptr inbounds i8, ptr @.str.64, i64 %indvars.iv.i.i
  %2 = load i8, ptr %arrayidx.i.i, align 1
  switch i8 %2, label %if.end.i.i [
    i8 0, label %for.end.i.i
    i8 92, label %if.then.i.i
    i8 34, label %if.then.i.i
  ]

if.then.i.i:                                      ; preds = %for.cond.i.i, %for.cond.i.i
  %inc.i.i = add nsw i32 %bufsize.0.i.i, 1
  br label %if.end.i.i

if.end.i.i:                                       ; preds = %if.then.i.i, %for.cond.i.i
  %bufsize.1.i.i = phi i32 [ %inc.i.i, %if.then.i.i ], [ %bufsize.0.i.i, %for.cond.i.i ]
  %inc9.i.i = add nsw i32 %bufsize.1.i.i, 1
  %indvars.iv.next.i.i = add nuw i64 %indvars.iv.i.i, 1
  br label %for.cond.i.i, !llvm.loop !10

for.end.i.i:                                      ; preds = %for.cond.i.i
  %conv11.i.i = sext i32 %bufsize.0.i.i to i64
  %call.i.i = tail call noalias ptr @calloc(i64 noundef 1, i64 noundef %conv11.i.i) #15
  store i8 34, ptr %call.i.i, align 1
  br label %for.cond13.i.i

for.cond13.i.i:                                   ; preds = %if.end31.i.i, %for.end.i.i
  %indvars.iv23.i.i = phi i64 [ %indvars.iv.next24.i.i, %if.end31.i.i ], [ 0, %for.end.i.i ]
  %call.pn.i.i = phi ptr [ %p.1.i.i, %if.end31.i.i ], [ %call.i.i, %for.end.i.i ]
  %p.0.i.i = getelementptr inbounds i8, ptr %call.pn.i.i, i64 1
  %arrayidx15.i.i = getelementptr inbounds i8, ptr @.str.64, i64 %indvars.iv23.i.i
  %3 = load i8, ptr %arrayidx15.i.i, align 1
  switch i8 %3, label %if.end31.i.i [
    i8 0, label %new_str_token.exit
    i8 92, label %if.then29.i.i
    i8 34, label %if.then29.i.i
  ]

if.then29.i.i:                                    ; preds = %for.cond13.i.i, %for.cond13.i.i
  %incdec.ptr30.i.i = getelementptr inbounds i8, ptr %call.pn.i.i, i64 2
  store i8 92, ptr %p.0.i.i, align 1
  br label %if.end31.i.i

if.end31.i.i:                                     ; preds = %if.then29.i.i, %for.cond13.i.i
  %p.1.i.i = phi ptr [ %incdec.ptr30.i.i, %if.then29.i.i ], [ %p.0.i.i, %for.cond13.i.i ]
  store i8 %3, ptr %p.1.i.i, align 1
  %indvars.iv.next24.i.i = add nuw i64 %indvars.iv23.i.i, 1
  br label %for.cond13.i.i, !llvm.loop !11

new_str_token.exit:                               ; preds = %for.cond13.i.i
  %incdec.ptr38.i.i = getelementptr inbounds i8, ptr %call.pn.i.i, i64 2
  store i8 34, ptr %p.0.i.i, align 1
  store i8 0, ptr %incdec.ptr38.i.i, align 1
  %4 = load ptr, ptr %file, align 16
  %5 = load ptr, ptr %4, align 8
  %file_no.i = getelementptr inbounds %struct.File, ptr %4, i64 0, i32 1
  %6 = load i32, ptr %file_no.i, align 8
  %call2.i = tail call ptr @new_file(ptr noundef %5, i32 noundef %6, ptr noundef nonnull %call.i.i) #14
  %call3.i = tail call ptr @tokenize(ptr noundef %call2.i) #14
  br label %return

if.end:                                           ; preds = %entry
  %st_mtim = getelementptr inbounds %struct.stat, ptr %st, i64 0, i32 12
  %call2 = call ptr @ctime_r(ptr noundef nonnull %st_mtim, ptr noundef nonnull %buf) #14
  %arrayidx = getelementptr inbounds [30 x i8], ptr %buf, i64 0, i64 24
  store i8 0, ptr %arrayidx, align 8
  br label %for.cond.i.i3

for.cond.i.i3:                                    ; preds = %if.end.i.i9, %if.end
  %indvars.iv.i.i4 = phi i64 [ %indvars.iv.next.i.i12, %if.end.i.i9 ], [ 0, %if.end ]
  %bufsize.0.i.i5 = phi i32 [ %inc9.i.i11, %if.end.i.i9 ], [ 3, %if.end ]
  %arrayidx.i.i6 = getelementptr inbounds i8, ptr %buf, i64 %indvars.iv.i.i4
  %7 = load i8, ptr %arrayidx.i.i6, align 1
  switch i8 %7, label %if.end.i.i9 [
    i8 0, label %for.end.i.i13
    i8 92, label %if.then.i.i7
    i8 34, label %if.then.i.i7
  ]

if.then.i.i7:                                     ; preds = %for.cond.i.i3, %for.cond.i.i3
  %inc.i.i8 = add nsw i32 %bufsize.0.i.i5, 1
  br label %if.end.i.i9

if.end.i.i9:                                      ; preds = %if.then.i.i7, %for.cond.i.i3
  %bufsize.1.i.i10 = phi i32 [ %inc.i.i8, %if.then.i.i7 ], [ %bufsize.0.i.i5, %for.cond.i.i3 ]
  %inc9.i.i11 = add nsw i32 %bufsize.1.i.i10, 1
  %indvars.iv.next.i.i12 = add nuw i64 %indvars.iv.i.i4, 1
  br label %for.cond.i.i3, !llvm.loop !10

for.end.i.i13:                                    ; preds = %for.cond.i.i3
  %conv11.i.i14 = sext i32 %bufsize.0.i.i5 to i64
  %call.i.i15 = call noalias ptr @calloc(i64 noundef 1, i64 noundef %conv11.i.i14) #15
  store i8 34, ptr %call.i.i15, align 1
  br label %for.cond13.i.i16

for.cond13.i.i16:                                 ; preds = %if.end31.i.i24, %for.end.i.i13
  %indvars.iv23.i.i17 = phi i64 [ %indvars.iv.next24.i.i26, %if.end31.i.i24 ], [ 0, %for.end.i.i13 ]
  %call.pn.i.i18 = phi ptr [ %p.1.i.i25, %if.end31.i.i24 ], [ %call.i.i15, %for.end.i.i13 ]
  %p.0.i.i19 = getelementptr inbounds i8, ptr %call.pn.i.i18, i64 1
  %arrayidx15.i.i20 = getelementptr inbounds i8, ptr %buf, i64 %indvars.iv23.i.i17
  %8 = load i8, ptr %arrayidx15.i.i20, align 1
  switch i8 %8, label %if.end31.i.i24 [
    i8 0, label %new_str_token.exit32
    i8 92, label %if.then29.i.i21
    i8 34, label %if.then29.i.i21
  ]

if.then29.i.i21:                                  ; preds = %for.cond13.i.i16, %for.cond13.i.i16
  %incdec.ptr30.i.i22 = getelementptr inbounds i8, ptr %call.pn.i.i18, i64 2
  store i8 92, ptr %p.0.i.i19, align 1
  %.pre.i.i23 = load i8, ptr %arrayidx15.i.i20, align 1
  br label %if.end31.i.i24

if.end31.i.i24:                                   ; preds = %if.then29.i.i21, %for.cond13.i.i16
  %9 = phi i8 [ %.pre.i.i23, %if.then29.i.i21 ], [ %8, %for.cond13.i.i16 ]
  %p.1.i.i25 = phi ptr [ %incdec.ptr30.i.i22, %if.then29.i.i21 ], [ %p.0.i.i19, %for.cond13.i.i16 ]
  store i8 %9, ptr %p.1.i.i25, align 1
  %indvars.iv.next24.i.i26 = add nuw i64 %indvars.iv23.i.i17, 1
  br label %for.cond13.i.i16, !llvm.loop !11

new_str_token.exit32:                             ; preds = %for.cond13.i.i16
  %incdec.ptr38.i.i27 = getelementptr inbounds i8, ptr %call.pn.i.i18, i64 2
  store i8 34, ptr %p.0.i.i19, align 1
  store i8 0, ptr %incdec.ptr38.i.i27, align 1
  %10 = load ptr, ptr %file, align 16
  %11 = load ptr, ptr %10, align 8
  %file_no.i29 = getelementptr inbounds %struct.File, ptr %10, i64 0, i32 1
  %12 = load i32, ptr %file_no.i29, align 8
  %call2.i30 = call ptr @new_file(ptr noundef %11, i32 noundef %12, ptr noundef nonnull %call.i.i15) #14
  %call3.i31 = call ptr @tokenize(ptr noundef %call2.i30) #14
  br label %return

return:                                           ; preds = %new_str_token.exit32, %new_str_token.exit
  %retval.0 = phi ptr [ %call3.i, %new_str_token.exit ], [ %call3.i31, %new_str_token.exit32 ]
  ret ptr %retval.0
}